target datalayout = "e-m:e-p270:32:32-p271:32:32-p272:64:64-i64:64-i128:128-f80:128-n8:16:32:64-S128"
target triple = "x86_64-pc-linux-gnu"

; Function Attrs: nounwind uwtable
define internal i32 @cpy_bmp(i64 noundef %0, ptr noundef %1) #0 {
  %3 = alloca i64, align 8
  %4 = alloca ptr, align 8
  %5 = alloca ptr, align 8
  %6 = alloca ptr, align 8
  store i64 %0, ptr %3, align 8, !tbaa !12
  store ptr %1, ptr %4, align 8, !tbaa !14
  call void @llvm.lifetime.start.p0(i64 8, ptr %5) #5
  call void @llvm.lifetime.start.p0(i64 8, ptr %6) #5
  %7 = load ptr, ptr %4, align 8, !tbaa !14
  store ptr %7, ptr %5, align 8, !tbaa !26
  %8 = load ptr, ptr %5, align 8, !tbaa !26
  %9 = load ptr, ptr %8, align 8, !tbaa !8
  store ptr %9, ptr %6, align 8, !tbaa !8
  %10 = load i64, ptr %3, align 8, !tbaa !12
  %11 = lshr i64 %10, 8
  %12 = and i64 %11, 255
  %13 = trunc i64 %12 to i8
  %14 = load ptr, ptr %6, align 8, !tbaa !8
  %15 = getelementptr inbounds nuw i8, ptr %14, i32 1
  store ptr %15, ptr %6, align 8, !tbaa !8
  store i8 %13, ptr %14, align 1, !tbaa !17
  %16 = load i64, ptr %3, align 8, !tbaa !12
  %17 = and i64 %16, 255
  %18 = trunc i64 %17 to i8
  %19 = load ptr, ptr %6, align 8, !tbaa !8
  store i8 %18, ptr %19, align 1, !tbaa !17
  %20 = load ptr, ptr %5, align 8, !tbaa !26
  %21 = load ptr, ptr %20, align 8, !tbaa !8
  %22 = getelementptr inbounds i8, ptr %21, i64 2
  store ptr %22, ptr %20, align 8, !tbaa !8
  call void @llvm.lifetime.end.p0(i64 8, ptr %6) #5
  call void @llvm.lifetime.end.p0(i64 8, ptr %5) #5
  ret i32 1
}