; Function Attrs: mustprogress nofree norecurse nosync nounwind willreturn memory(write, argmem: readwrite, inaccessiblemem: none) uwtable
define internal noundef i32 @cpy_bmp(i64 noundef %0, ptr noundef captures(none) %1) #4 {
  %3 = load ptr, ptr %1, align 8, !tbaa !17
  %4 = lshr i64 %0, 8
  %5 = trunc i64 %4 to i8
  %6 = getelementptr inbounds nuw i8, ptr %3, i64 1
  store i8 %5, ptr %3, align 1, !tbaa !20
  %7 = trunc i64 %0 to i8
  store i8 %7, ptr %6, align 1, !tbaa !20
  %8 = load ptr, ptr %1, align 8, !tbaa !17
  %9 = getelementptr inbounds nuw i8, ptr %8, i64 2
  store ptr %9, ptr %1, align 8, !tbaa !17
  ret i32 1
}